target datalayout = "e-m:e-p270:32:32-p271:32:32-p272:64:64-i64:64-i128:128-f80:128-n8:16:32:64-S128"
target triple = "x86_64-pc-linux-gnu"

%struct.s_mmfile = type { ptr, i64 }

; Function Attrs: nounwind uwtable
define dso_local i64 @xdl_mmfile_size(ptr noundef %0) #0 {
  %2 = alloca ptr, align 8
  store ptr %0, ptr %2, align 8, !tbaa !24
  %3 = load ptr, ptr %2, align 8, !tbaa !24
  %4 = getelementptr inbounds nuw %struct.s_mmfile, ptr %3, i32 0, i32 1
  %5 = load i64, ptr %4, align 8, !tbaa !28
  ret i64 %5
}

; Function Attrs: nounwind uwtable
define dso_local ptr @xdl_mmfile_first(ptr noundef %0, ptr noundef %1) #0 {
  %3 = alloca ptr, align 8
  %4 = alloca ptr, align 8
  store ptr %0, ptr %3, align 8, !tbaa !24
  store ptr %1, ptr %4, align 8, !tbaa !26
  %5 = load ptr, ptr %3, align 8, !tbaa !24
  %6 = getelementptr inbounds nuw %struct.s_mmfile, ptr %5, i32 0, i32 1
  %7 = load i64, ptr %6, align 8, !tbaa !28
  %8 = load ptr, ptr %4, align 8, !tbaa !26
  store i64 %7, ptr %8, align 8, !tbaa !4
  %9 = load ptr, ptr %3, align 8, !tbaa !24
  %10 = getelementptr inbounds nuw %struct.s_mmfile, ptr %9, i32 0, i32 0
  %11 = load ptr, ptr %10, align 8, !tbaa !30
  ret ptr %11
}

; Function Attrs: nounwind uwtable
define dso_local i64 @xdl_guess_lines(ptr noundef %0, i64 noundef %1) #0 {
  %3 = alloca ptr, align 8
  %4 = alloca i64, align 8
  %5 = alloca i64, align 8
  %6 = alloca i64, align 8
  %7 = alloca i64, align 8
  %8 = alloca ptr, align 8
  %9 = alloca ptr, align 8
  %10 = alloca ptr, align 8
  store ptr %0, ptr %3, align 8, !tbaa !24
  store i64 %1, ptr %4, align 8, !tbaa !4
  call void @llvm.lifetime.start.p0(i64 8, ptr %5) #6
  store i64 0, ptr %5, align 8, !tbaa !4
  call void @llvm.lifetime.start.p0(i64 8, ptr %6) #6
  call void @llvm.lifetime.start.p0(i64 8, ptr %7) #6
  store i64 0, ptr %7, align 8, !tbaa !4
  call void @llvm.lifetime.start.p0(i64 8, ptr %8) #6
  call void @llvm.lifetime.start.p0(i64 8, ptr %9) #6
  call void @llvm.lifetime.start.p0(i64 8, ptr %10) #6
  %11 = load ptr, ptr %3, align 8, !tbaa !24
  %12 = call ptr @xdl_mmfile_first(ptr noundef %11, ptr noundef %6)
  store ptr %12, ptr %8, align 8, !tbaa !10
  store ptr %12, ptr %9, align 8, !tbaa !10
  %13 = icmp ne ptr %12, null
  br i1 %13, label %14, label %53

14:                                               ; preds = %2
  %15 = load ptr, ptr %8, align 8, !tbaa !10
  %16 = load i64, ptr %6, align 8, !tbaa !4
  %17 = getelementptr inbounds i8, ptr %15, i64 %16
  store ptr %17, ptr %10, align 8, !tbaa !10
  br label %18

18:                                               ; preds = %44, %14
  %19 = load i64, ptr %5, align 8, !tbaa !4
  %20 = load i64, ptr %4, align 8, !tbaa !4
  %21 = icmp slt i64 %19, %20
  br i1 %21, label %22, label %26

22:                                               ; preds = %18
  %23 = load ptr, ptr %9, align 8, !tbaa !10
  %24 = load ptr, ptr %10, align 8, !tbaa !10
  %25 = icmp ult ptr %23, %24
  br label %26

26:                                               ; preds = %22, %18
  %27 = phi i1 [ false, %18 ], [ %25, %22 ]
  br i1 %27, label %28, label %45

28:                                               ; preds = %26
  %29 = load i64, ptr %5, align 8, !tbaa !4
  %30 = add nsw i64 %29, 1
  store i64 %30, ptr %5, align 8, !tbaa !4
  %31 = load ptr, ptr %9, align 8, !tbaa !10
  %32 = load ptr, ptr %10, align 8, !tbaa !10
  %33 = load ptr, ptr %9, align 8, !tbaa !10
  %34 = ptrtoint ptr %32 to i64
  %35 = ptrtoint ptr %33 to i64
  %36 = sub i64 %34, %35
  %37 = call ptr @memchr(ptr noundef %31, i32 noundef 10, i64 noundef %36) #7
  store ptr %37, ptr %9, align 8, !tbaa !10
  %38 = icmp ne ptr %37, null
  br i1 %38, label %41, label %39

39:                                               ; preds = %28
  %40 = load ptr, ptr %10, align 8, !tbaa !10
  store ptr %40, ptr %9, align 8, !tbaa !10
  br label %44

41:                                               ; preds = %28
  %42 = load ptr, ptr %9, align 8, !tbaa !10
  %43 = getelementptr inbounds nuw i8, ptr %42, i32 1
  store ptr %43, ptr %9, align 8, !tbaa !10
  br label %44

44:                                               ; preds = %41, %39
  br label %18, !llvm.loop !48

45:                                               ; preds = %26
  %46 = load ptr, ptr %9, align 8, !tbaa !10
  %47 = load ptr, ptr %8, align 8, !tbaa !10
  %48 = ptrtoint ptr %46 to i64
  %49 = ptrtoint ptr %47 to i64
  %50 = sub i64 %48, %49
  %51 = load i64, ptr %7, align 8, !tbaa !4
  %52 = add nsw i64 %51, %50
  store i64 %52, ptr %7, align 8, !tbaa !4
  br label %53

53:                                               ; preds = %45, %2
  %54 = load i64, ptr %5, align 8, !tbaa !4
  %55 = icmp ne i64 %54, 0
  br i1 %55, label %56, label %66

56:                                               ; preds = %53
  %57 = load i64, ptr %7, align 8, !tbaa !4
  %58 = icmp ne i64 %57, 0
  br i1 %58, label %59, label %66

59:                                               ; preds = %56
  %60 = load ptr, ptr %3, align 8, !tbaa !24
  %61 = call i64 @xdl_mmfile_size(ptr noundef %60)
  %62 = load i64, ptr %7, align 8, !tbaa !4
  %63 = load i64, ptr %5, align 8, !tbaa !4
  %64 = sdiv i64 %62, %63
  %65 = sdiv i64 %61, %64
  store i64 %65, ptr %5, align 8, !tbaa !4
  br label %66

66:                                               ; preds = %59, %56, %53
  %67 = load i64, ptr %5, align 8, !tbaa !4
  %68 = add nsw i64 %67, 1
  call void @llvm.lifetime.end.p0(i64 8, ptr %10) #6
  call void @llvm.lifetime.end.p0(i64 8, ptr %9) #6
  call void @llvm.lifetime.end.p0(i64 8, ptr %8) #6
  call void @llvm.lifetime.end.p0(i64 8, ptr %7) #6
  call void @llvm.lifetime.end.p0(i64 8, ptr %6) #6
  call void @llvm.lifetime.end.p0(i64 8, ptr %5) #6
  ret i64 %68
}