; Function Attrs: nofree nounwind memory(read, inaccessiblemem: none) uwtable
define dso_local range(i64 -9223372036854775807, -9223372036854775808) i64 @xdl_guess_lines(ptr noundef readonly captures(none) %0, i64 noundef %1) local_unnamed_addr #8 {
  %3 = getelementptr inbounds nuw i8, ptr %0, i64 8
  %4 = load i64, ptr %3, align 8, !tbaa !18
  %5 = load ptr, ptr %0, align 8, !tbaa !21
  %.not = icmp eq ptr %5, null
  br i1 %.not, label %.thread, label %6

6:                                                ; preds = %2
  %7 = getelementptr inbounds i8, ptr %5, i64 %4
  %8 = icmp sgt i64 %1, 0
  %9 = icmp sgt i64 %4, 0
  %10 = select i1 %8, i1 %9, i1 false
  br i1 %10, label %.lr.ph, label %.thread

.lr.ph:                                           ; preds = %6
  %11 = ptrtoint ptr %7 to i64
  br label %12

12:                                               ; preds = %.lr.ph, %12
  %.132 = phi i64 [ 0, %.lr.ph ], [ %13, %12 ]
  %.02131 = phi ptr [ %5, %.lr.ph ], [ %.122, %12 ]
  %13 = add nuw nsw i64 %.132, 1
  %14 = ptrtoint ptr %.02131 to i64
  %15 = sub i64 %11, %14
  %16 = tail call ptr @memchr(ptr noundef %.02131, i32 noundef 10, i64 noundef %15) #19
  %.not27 = icmp eq ptr %16, null
  %17 = getelementptr inbounds nuw i8, ptr %16, i64 1
  %.122 = select i1 %.not27, ptr %7, ptr %17
  %18 = icmp slt i64 %13, %1
  %19 = icmp ult ptr %.122, %7
  %20 = select i1 %18, i1 %19, i1 false
  br i1 %20, label %12, label %._crit_edge, !llvm.loop !33

._crit_edge:                                      ; preds = %12
  %.not37 = icmp eq ptr %.122, %5
  br i1 %.not37, label %.thread, label %21

21:                                               ; preds = %._crit_edge
  %22 = ptrtoint ptr %5 to i64
  %23 = ptrtoint ptr %.122 to i64
  %24 = sub i64 %23, %22
  %25 = sdiv i64 %24, %13
  %26 = sdiv i64 %4, %25
  br label %.thread

.thread:                                          ; preds = %6, %2, %21, %._crit_edge
  %.2 = phi i64 [ %26, %21 ], [ %13, %._crit_edge ], [ 0, %2 ], [ 0, %6 ]
  %27 = add nsw i64 %.2, 1
  ret i64 %27
}